target datalayout = "e-m:e-p270:32:32-p271:32:32-p272:64:64-i64:64-i128:128-f80:128-n8:16:32:64-S128"
target triple = "x86_64-pc-linux-gnu"

%struct.Vec_Int_t_ = type { i32, i32, ptr }
%struct.Gia_Man_t_ = type { ptr, ptr, i32, i32, i32, i32, ptr, ptr, i32, i32, i32, ptr, ptr, %struct.Vec_Int_t_, %struct.Vec_Int_t_, i32, i32, i32, %struct.Vec_Int_t_, ptr, ptr, ptr, i32, i32, i32, i32, ptr, ptr, ptr, ptr, ptr, i32, i32, ptr, i32, ptr, ptr, ptr, ptr, ptr, ptr, ptr, ptr, ptr, ptr, ptr, ptr, ptr, ptr, ptr, ptr, ptr, ptr, %struct.Vec_Int_t_, %struct.Vec_Int_t_, ptr, ptr, ptr, ptr, ptr, ptr, ptr, ptr, ptr, ptr, ptr, ptr, ptr, ptr, ptr, ptr, ptr, ptr, ptr, ptr, ptr, i32, float, float, ptr, ptr, i32, ptr, ptr, ptr, ptr, ptr, ptr, ptr, ptr, ptr, ptr, ptr, ptr, ptr, ptr, ptr, i64, i64, ptr, ptr, i32, i32, i32, i32, i32, i32, i32, i32, i32, i32, i32, i32, ptr, ptr, ptr, ptr, ptr, ptr, ptr, ptr, i32, i32, i32, ptr, i32, i32, ptr, ptr, ptr, ptr, ptr, ptr, i32, i32, ptr, %struct.Vec_Int_t_, %struct.Vec_Int_t_, %struct.Vec_Int_t_, ptr, ptr, ptr }

@.str.111 = private unnamed_addr constant [8 x i8] c"M_quo: \00", align 1
@.str.115 = private unnamed_addr constant [24 x i8] c"Quantifying target %3d \00", align 1
@.str.116 = private unnamed_addr constant [8 x i8] c"M_syn: \00", align 1

; Function Attrs: nounwind uwtable
define internal i32 @Vec_IntSize(ptr noundef %0) #0 {
  %2 = alloca ptr, align 8
  store ptr %0, ptr %2, align 8
  %3 = load ptr, ptr %2, align 8
  %4 = getelementptr inbounds %struct.Vec_Int_t_, ptr %3, i32 0, i32 1
  %5 = load i32, ptr %4, align 4
  ret i32 %5
}

; Function Attrs: nounwind uwtable
define internal i32 @Gia_ManAndNum(ptr noundef %0) #0 {
  %2 = alloca ptr, align 8
  store ptr %0, ptr %2, align 8
  %3 = load ptr, ptr %2, align 8
  %4 = getelementptr inbounds %struct.Gia_Man_t_, ptr %3, i32 0, i32 4
  %5 = load i32, ptr %4, align 8
  %6 = load ptr, ptr %2, align 8
  %7 = getelementptr inbounds %struct.Gia_Man_t_, ptr %6, i32 0, i32 11
  %8 = load ptr, ptr %7, align 8
  %9 = call i32 @Vec_IntSize(ptr noundef %8)
  %10 = sub nsw i32 %5, %9
  %11 = load ptr, ptr %2, align 8
  %12 = getelementptr inbounds %struct.Gia_Man_t_, ptr %11, i32 0, i32 12
  %13 = load ptr, ptr %12, align 8
  %14 = call i32 @Vec_IntSize(ptr noundef %13)
  %15 = sub nsw i32 %10, %14
  %16 = sub nsw i32 %15, 1
  ret i32 %16
}

; Function Attrs: nounwind uwtable
define internal i32 @Gia_ManCiNum(ptr noundef %0) #0 {
  %2 = alloca ptr, align 8
  store ptr %0, ptr %2, align 8
  %3 = load ptr, ptr %2, align 8
  %4 = getelementptr inbounds %struct.Gia_Man_t_, ptr %3, i32 0, i32 11
  %5 = load ptr, ptr %4, align 8
  %6 = call i32 @Vec_IntSize(ptr noundef %5)
  ret i32 %6
}

; Function Attrs: nounwind uwtable
define ptr @Acb_NtkDeriveMiterCnf(ptr noundef %0, i32 noundef %1, i32 noundef %2, i32 noundef %3) #0 {
  %5 = alloca ptr, align 8
  %6 = alloca i32, align 4
  %7 = alloca i32, align 4
  %8 = alloca i32, align 4
  %9 = alloca ptr, align 8
  %10 = alloca ptr, align 8
  %11 = alloca i32, align 4
  %12 = alloca ptr, align 8
  store ptr %0, ptr %5, align 8
  store i32 %1, ptr %6, align 4
  store i32 %2, ptr %7, align 4
  store i32 %3, ptr %8, align 4
  %13 = load ptr, ptr %5, align 8
  %14 = call ptr @Gia_ManDup(ptr noundef %13)
  store ptr %14, ptr %9, align 8
  store i32 0, ptr %11, align 4
  br label %15

15:                                               ; preds = %40, %4
  %16 = load i32, ptr %11, align 4
  %17 = load i32, ptr %6, align 4
  %18 = icmp slt i32 %16, %17
  br i1 %18, label %19, label %43

19:                                               ; preds = %15
  %20 = load ptr, ptr %9, align 8
  store ptr %20, ptr %5, align 8
  %21 = load ptr, ptr %9, align 8
  %22 = call i32 @Gia_ManCiNum(ptr noundef %21)
  %23 = load i32, ptr %7, align 4
  %24 = sub nsw i32 %22, %23
  %25 = load i32, ptr %11, align 4
  %26 = add nsw i32 %24, %25
  %27 = call ptr @Gia_ManDupUniv(ptr noundef %20, i32 noundef %26)
  store ptr %27, ptr %9, align 8
  %28 = load ptr, ptr %9, align 8
  store ptr %28, ptr %12, align 8
  %29 = call ptr @Gia_ManAigSyn2(ptr noundef %28, i32 noundef 0, i32 noundef 1, i32 noundef 0, i32 noundef 100, i32 noundef 0, i32 noundef 0, i32 noundef 0)
  store ptr %29, ptr %9, align 8
  %30 = load ptr, ptr %12, align 8
  call void @Gia_ManStop(ptr noundef %30)
  %31 = load ptr, ptr %9, align 8
  %32 = call i32 @Gia_ManAndNum(ptr noundef %31)
  %33 = icmp sgt i32 %32, 10000
  br i1 %33, label %34, label %38

34:                                               ; preds = %19
  %35 = load i32, ptr %11, align 4
  %36 = call i32 (ptr, ...) @printf(ptr noundef @.str.115, i32 noundef %35)
  %37 = load ptr, ptr %9, align 8
  call void @Gia_ManPrintStats(ptr noundef %37, ptr noundef null)
  br label %38

38:                                               ; preds = %34, %19
  %39 = load ptr, ptr %5, align 8
  call void @Gia_ManStop(ptr noundef %39)
  br label %40

40:                                               ; preds = %38
  %41 = load i32, ptr %11, align 4
  %42 = add nsw i32 %41, 1
  store i32 %42, ptr %11, align 4
  br label %15, !llvm.loop !186

43:                                               ; preds = %15
  %44 = load i32, ptr %8, align 4
  %45 = icmp ne i32 %44, 0
  br i1 %45, label %46, label %48

46:                                               ; preds = %43
  %47 = call i32 (ptr, ...) @printf(ptr noundef @.str.111)
  br label %48

48:                                               ; preds = %46, %43
  %49 = load i32, ptr %8, align 4
  %50 = icmp ne i32 %49, 0
  br i1 %50, label %51, label %53

51:                                               ; preds = %48
  %52 = load ptr, ptr %9, align 8
  call void @Gia_ManPrintStats(ptr noundef %52, ptr noundef null)
  br label %53

53:                                               ; preds = %51, %48
  %54 = load i32, ptr %8, align 4
  %55 = icmp ne i32 %54, 0
  br i1 %55, label %56, label %58

56:                                               ; preds = %53
  %57 = call i32 (ptr, ...) @printf(ptr noundef @.str.116)
  br label %58

58:                                               ; preds = %56, %53
  %59 = load i32, ptr %8, align 4
  %60 = icmp ne i32 %59, 0
  br i1 %60, label %61, label %63

61:                                               ; preds = %58
  %62 = load ptr, ptr %9, align 8
  call void @Gia_ManPrintStats(ptr noundef %62, ptr noundef null)
  br label %63

63:                                               ; preds = %61, %58
  %64 = load ptr, ptr %9, align 8
  %65 = call ptr @Mf_ManGenerateCnf(ptr noundef %64, i32 noundef 8, i32 noundef 0, i32 noundef 0, i32 noundef 0, i32 noundef 0)
  store ptr %65, ptr %10, align 8
  %66 = load ptr, ptr %9, align 8
  call void @Gia_ManStop(ptr noundef %66)
  %67 = load ptr, ptr %10, align 8
  ret ptr %67
}