; Function Attrs: nounwind uwtable
define ptr @Acb_NtkDeriveMiterCnf(ptr noundef %0, i32 noundef %1, i32 noundef %2, i32 noundef %3) local_unnamed_addr #0 {
  %5 = tail call ptr @Gia_ManDup(ptr noundef %0) #31
  %6 = icmp sgt i32 %1, 0
  br i1 %6, label %.lr.ph, label %._crit_edge

.lr.ph:                                           ; preds = %4, %26
  %.027 = phi i32 [ %27, %26 ], [ 0, %4 ]
  %.02226 = phi ptr [ %12, %26 ], [ %5, %4 ]
  %7 = getelementptr i8, ptr %.02226, i64 64
  %.022.val = load ptr, ptr %7, align 8
  %8 = getelementptr i8, ptr %.022.val, i64 4
  %.022.val.val = load i32, ptr %8, align 4
  %9 = sub i32 %.027, %2
  %10 = add i32 %9, %.022.val.val
  %11 = tail call ptr @Gia_ManDupUniv(ptr noundef %.02226, i32 noundef %10) #31
  %12 = tail call ptr @Gia_ManAigSyn2(ptr noundef %11, i32 noundef 0, i32 noundef 1, i32 noundef 0, i32 noundef 100, i32 noundef 0, i32 noundef 0, i32 noundef 0) #31
  tail call void @Gia_ManStop(ptr noundef %11) #31
  %13 = getelementptr inbounds nuw i8, ptr %12, i64 24
  %14 = load i32, ptr %13, align 8
  %15 = getelementptr inbounds nuw i8, ptr %12, i64 64
  %16 = load ptr, ptr %15, align 8
  %17 = getelementptr i8, ptr %16, i64 4
  %.val3.i = load i32, ptr %17, align 4
  %18 = getelementptr inbounds nuw i8, ptr %12, i64 72
  %19 = load ptr, ptr %18, align 8
  %20 = getelementptr i8, ptr %19, i64 4
  %.val.i = load i32, ptr %20, align 4
  %21 = sub i32 %.val3.i, %14
  %22 = add i32 %21, %.val.i
  %23 = icmp slt i32 %22, -10001
  br i1 %23, label %24, label %26

24:                                               ; preds = %.lr.ph
  %25 = tail call i32 (ptr, ...) @printf(ptr noundef nonnull dereferenceable(1) @.str.115, i32 noundef %.027)
  tail call void @Gia_ManPrintStats(ptr noundef nonnull %12, ptr noundef null) #31
  br label %26

26:                                               ; preds = %24, %.lr.ph
  tail call void @Gia_ManStop(ptr noundef nonnull %.02226) #31
  %27 = add nuw nsw i32 %.027, 1
  %exitcond.not = icmp eq i32 %27, %1
  br i1 %exitcond.not, label %._crit_edge, label %.lr.ph, !llvm.loop !173

._crit_edge:                                      ; preds = %26, %4
  %.022.lcssa = phi ptr [ %5, %4 ], [ %12, %26 ]
  %.not = icmp eq i32 %3, 0
  br i1 %.not, label %.critedge24, label %.critedge

.critedge:                                        ; preds = %._crit_edge
  %28 = tail call i32 (ptr, ...) @printf(ptr noundef nonnull dereferenceable(1) @.str.111)
  tail call void @Gia_ManPrintStats(ptr noundef %.022.lcssa, ptr noundef null) #31
  %29 = tail call i32 (ptr, ...) @printf(ptr noundef nonnull dereferenceable(1) @.str.116)
  tail call void @Gia_ManPrintStats(ptr noundef %.022.lcssa, ptr noundef null) #31
  br label %.critedge24

.critedge24:                                      ; preds = %._crit_edge, %.critedge
  %30 = tail call ptr @Mf_ManGenerateCnf(ptr noundef %.022.lcssa, i32 noundef 8, i32 noundef 0, i32 noundef 0, i32 noundef 0, i32 noundef 0) #31
  tail call void @Gia_ManStop(ptr noundef %.022.lcssa) #31
  ret ptr %30
}